
main.elf:     file format elf32-littleriscv


Disassembly of section .text:

40000000 <_start>:
40000000:	00000013          	nop

40000004 <__crt0_pointer_init>:
40000004:	00010117          	auipc	sp,0x10
40000008:	ff810113          	addi	sp,sp,-8 # 4000fffc <__crt0_stack_begin>
4000000c:	00001197          	auipc	gp,0x1
40000010:	99818193          	addi	gp,gp,-1640 # 400009a4 <__global_pointer$>

40000014 <__crt0_cpu_csr_init>:
40000014:	00000517          	auipc	a0,0x0
40000018:	11c50513          	addi	a0,a0,284 # 40000130 <__crt0_dummy_trap_handler>
4000001c:	30551073          	csrw	mtvec,a0
40000020:	34151073          	csrw	mepc,a0
40000024:	30001073          	csrw	mstatus,zero
40000028:	30401073          	csrw	mie,zero
4000002c:	30601073          	csrw	mcounteren,zero
40000030:	ffa00593          	li	a1,-6
40000034:	32059073          	csrw	mcountinhibit,a1
40000038:	b0001073          	csrw	mcycle,zero
4000003c:	b8001073          	csrw	mcycleh,zero
40000040:	b0201073          	csrw	minstret,zero
40000044:	b8201073          	csrw	minstreth,zero

40000048 <__crt0_reg_file_clear>:
40000048:	00000093          	li	ra,0
4000004c:	00000213          	li	tp,0
40000050:	00000293          	li	t0,0
40000054:	00000313          	li	t1,0
40000058:	00000393          	li	t2,0
4000005c:	00000713          	li	a4,0
40000060:	00000793          	li	a5,0
40000064:	00000813          	li	a6,0
40000068:	00000893          	li	a7,0
4000006c:	00000913          	li	s2,0
40000070:	00000993          	li	s3,0
40000074:	00000a13          	li	s4,0
40000078:	00000a93          	li	s5,0
4000007c:	00000b13          	li	s6,0
40000080:	00000b93          	li	s7,0
40000084:	00000c13          	li	s8,0
40000088:	00000c93          	li	s9,0
4000008c:	00000d13          	li	s10,0
40000090:	00000d93          	li	s11,0
40000094:	00000e13          	li	t3,0
40000098:	00000e93          	li	t4,0
4000009c:	00000f13          	li	t5,0
400000a0:	00000f93          	li	t6,0

400000a4 <__crt0_reset_io>:
400000a4:	00000413          	li	s0,0
400000a8:	fff00493          	li	s1,-1

400000ac <__crt0_reset_io_loop>:
400000ac:	00042023          	sw	zero,0(s0)
400000b0:	00440413          	addi	s0,s0,4
400000b4:	fe941ce3          	bne	s0,s1,400000ac <__crt0_reset_io_loop>

400000b8 <__crt0_clear_bss>:
400000b8:	00000597          	auipc	a1,0x0
400000bc:	0ec58593          	addi	a1,a1,236 # 400001a4 <__crt0_copy_data_src_begin>
400000c0:	00000617          	auipc	a2,0x0
400000c4:	0e460613          	addi	a2,a2,228 # 400001a4 <__crt0_copy_data_src_begin>

400000c8 <__crt0_clear_bss_loop>:
400000c8:	00c5d863          	bge	a1,a2,400000d8 <__crt0_clear_bss_loop_end>
400000cc:	00058023          	sb	zero,0(a1)
400000d0:	00158593          	addi	a1,a1,1
400000d4:	ff5ff06f          	j	400000c8 <__crt0_clear_bss_loop>

400000d8 <__crt0_clear_bss_loop_end>:
400000d8:	00000597          	auipc	a1,0x0
400000dc:	0cc58593          	addi	a1,a1,204 # 400001a4 <__crt0_copy_data_src_begin>
400000e0:	00000617          	auipc	a2,0x0
400000e4:	0c460613          	addi	a2,a2,196 # 400001a4 <__crt0_copy_data_src_begin>
400000e8:	00000697          	auipc	a3,0x0
400000ec:	0bc68693          	addi	a3,a3,188 # 400001a4 <__crt0_copy_data_src_begin>

400000f0 <__crt0_copy_data_loop>:
400000f0:	00d65c63          	bge	a2,a3,40000108 <__crt0_copy_data_loop_end>
400000f4:	00058703          	lb	a4,0(a1)
400000f8:	00e60023          	sb	a4,0(a2)
400000fc:	00158593          	addi	a1,a1,1
40000100:	00160613          	addi	a2,a2,1
40000104:	fedff06f          	j	400000f0 <__crt0_copy_data_loop>

40000108 <__crt0_copy_data_loop_end>:
40000108:	00000513          	li	a0,0
4000010c:	00000593          	li	a1,0
40000110:	06c000ef          	jal	ra,4000017c <main>

40000114 <__crt0_main_aftermath>:
40000114:	34051073          	csrw	mscratch,a0
40000118:	00000093          	li	ra,0
4000011c:	00008463          	beqz	ra,40000124 <__crt0_main_aftermath_end>
40000120:	000080e7          	jalr	ra

40000124 <__crt0_main_aftermath_end>:
40000124:	30047073          	csrci	mstatus,8

40000128 <__crt0_main_aftermath_end_loop>:
40000128:	10500073          	wfi
4000012c:	ffdff06f          	j	40000128 <__crt0_main_aftermath_end_loop>

40000130 <__crt0_dummy_trap_handler>:
40000130:	ff810113          	addi	sp,sp,-8
40000134:	00812023          	sw	s0,0(sp)
40000138:	00912223          	sw	s1,4(sp)
4000013c:	34202473          	csrr	s0,mcause
40000140:	02044663          	bltz	s0,4000016c <__crt0_dummy_trap_handler_irq>
40000144:	34102473          	csrr	s0,mepc

40000148 <__crt0_dummy_trap_handler_exc_c_check>:
40000148:	00041483          	lh	s1,0(s0)
4000014c:	0034f493          	andi	s1,s1,3
40000150:	00240413          	addi	s0,s0,2
40000154:	34141073          	csrw	mepc,s0
40000158:	00300413          	li	s0,3
4000015c:	00941863          	bne	s0,s1,4000016c <__crt0_dummy_trap_handler_irq>

40000160 <__crt0_dummy_trap_handler_exc_uncrompressed>:
40000160:	34102473          	csrr	s0,mepc
40000164:	00240413          	addi	s0,s0,2
40000168:	34141073          	csrw	mepc,s0

4000016c <__crt0_dummy_trap_handler_irq>:
4000016c:	00012403          	lw	s0,0(sp)
40000170:	00412483          	lw	s1,4(sp)
40000174:	00810113          	addi	sp,sp,8
40000178:	30200073          	mret

4000017c <main>:
4000017c:	400207b7          	lui	a5,0x40020
40000180:	0007a223          	sw	zero,4(a5) # 40020004 <__crt0_stack_begin+0x10008>
40000184:	00400613          	li	a2,4
40000188:	00800693          	li	a3,8
4000018c:	00c00713          	li	a4,12
40000190:	0007a023          	sw	zero,0(a5)
40000194:	00c7a023          	sw	a2,0(a5)
40000198:	00d7a023          	sw	a3,0(a5)
4000019c:	00e7a023          	sw	a4,0(a5)
400001a0:	ff1ff06f          	j	40000190 <main+0x14>

Disassembly of section .comment:

00000000 <.comment>:
   0:	3a434347          	fmsub.d	ft6,ft6,ft4,ft7,rmm
   4:	2820                	fld	fs0,80(s0)
   6:	29554e47          	fmsub.s	ft8,fa0,fs5,ft5,rmm
   a:	3120                	fld	fs0,96(a0)
   c:	2e30                	fld	fa2,88(a2)
   e:	2e32                	fld	ft8,264(sp)
  10:	0030                	addi	a2,sp,8

Disassembly of section .riscv.attributes:

00000000 <.riscv.attributes>:
   0:	1f41                	addi	t5,t5,-16
   2:	0000                	unimp
   4:	7200                	flw	fs0,32(a2)
   6:	7369                	lui	t1,0xffffa
   8:	01007663          	bgeu	zero,a6,14 <__ctr0_io_space_begin+0x14>
   c:	0015                	c.nop	5
   e:	0000                	unimp
  10:	1004                	addi	s1,sp,32
  12:	7205                	lui	tp,0xfffe1
  14:	3376                	fld	ft6,376(sp)
  16:	6932                	flw	fs2,12(sp)
  18:	7032                	flw	ft0,44(sp)
  1a:	0030                	addi	a2,sp,8
  1c:	0108                	addi	a0,sp,128
  1e:	0b0a                	slli	s6,s6,0x2
